; Function Attrs: mustprogress uwtable
define noundef nonnull align 8 dereferenceable(24) ptr @_ZNK8QuantLib17OptionletStripper20optionletFixingDatesEv(ptr noundef nonnull align 8 dereferenceable(312) %this) unnamed_addr #4 align 2 {
entry:
  %vtable = load ptr, ptr %this, align 8, !tbaa !14
  %vfn = getelementptr inbounds i8, ptr %vtable, i64 24
  %0 = load ptr, ptr %vfn, align 8
  tail call void %0(ptr noundef nonnull align 8 dereferenceable(12) %this)
  %optionletDates_ = getelementptr inbounds nuw i8, ptr %this, i64 152
  ret ptr %optionletDates_
}